; Function Attrs: nounwind uwtable
define void @Wlc_NtkDupDfs_rec(ptr noundef captures(none) %0, ptr noundef readonly captures(none) %1, i32 noundef %2, ptr noundef captures(none) %3) local_unnamed_addr #3 {
  %5 = icmp eq i32 %2, 0
  br i1 %5, label %29, label %6

6:                                                ; preds = %4
  %7 = getelementptr i8, ptr %1, i64 760
  %.val19 = load ptr, ptr %7, align 8
  %8 = sext i32 %2 to i64
  %9 = getelementptr inbounds i32, ptr %.val19, i64 %8
  %10 = load i32, ptr %9, align 4
  %.not = icmp eq i32 %10, 0
  br i1 %.not, label %11, label %29

11:                                               ; preds = %6
  %12 = getelementptr i8, ptr %1, i64 640
  %.val = load ptr, ptr %12, align 8
  %13 = getelementptr inbounds %struct.Wlc_Obj_t_, ptr %.val, i64 %8
  %14 = getelementptr i8, ptr %13, i64 4
  %.val1820 = load i32, ptr %14, align 4
  %15 = icmp sgt i32 %.val1820, 0
  br i1 %15, label %.lr.ph, label %.critedge

.lr.ph:                                           ; preds = %11
  %16 = getelementptr inbounds nuw i8, ptr %13, i64 16
  br label %17

17:                                               ; preds = %.lr.ph, %Wlc_ObjFaninId.exit
  %indvars.iv = phi i64 [ 0, %.lr.ph ], [ %indvars.iv.next, %Wlc_ObjFaninId.exit ]
  %.val1822 = phi i32 [ %.val1820, %.lr.ph ], [ %.val18, %Wlc_ObjFaninId.exit ]
  %18 = icmp ugt i32 %.val1822, 2
  br i1 %18, label %Wlc_ObjHasArray.exit.thread.i.i, label %19

19:                                               ; preds = %17
  %20 = load i16, ptr %13, align 8
  %21 = and i16 %20, 63
  switch i16 %21, label %Wlc_ObjFaninId.exit [
    i16 6, label %Wlc_ObjHasArray.exit.thread.i.i
    i16 22, label %Wlc_ObjHasArray.exit.thread.i.i
  ]

Wlc_ObjHasArray.exit.thread.i.i:                  ; preds = %19, %19, %17
  %22 = load ptr, ptr %16, align 8
  br label %Wlc_ObjFaninId.exit

Wlc_ObjFaninId.exit:                              ; preds = %19, %Wlc_ObjHasArray.exit.thread.i.i
  %23 = phi ptr [ %22, %Wlc_ObjHasArray.exit.thread.i.i ], [ %16, %19 ]
  %24 = getelementptr inbounds nuw i32, ptr %23, i64 %indvars.iv
  %25 = load i32, ptr %24, align 4
  tail call void @Wlc_NtkDupDfs_rec(ptr noundef %0, ptr noundef %1, i32 noundef %25, ptr noundef %3)
  %indvars.iv.next = add nuw nsw i64 %indvars.iv, 1
  %.val18 = load i32, ptr %14, align 4
  %26 = sext i32 %.val18 to i64
  %27 = icmp slt i64 %indvars.iv.next, %26
  br i1 %27, label %17, label %.critedge, !llvm.loop !53

.critedge:                                        ; preds = %Wlc_ObjFaninId.exit, %11
  %28 = tail call i32 @Wlc_ObjDup(ptr noundef %0, ptr noundef %1, i32 noundef %2, ptr noundef %3)
  br label %29

29:                                               ; preds = %6, %4, %.critedge
  ret void
}